; Function Attrs: mustprogress nofree norecurse nosync nounwind memory(readwrite, inaccessiblemem: none) uwtable
define hidden void @_ZN3sat8use_list7unblockERNS_6clauseE(ptr nocapture noundef nonnull readonly align 8 dereferenceable(8) %this, ptr noundef nonnull readonly align 4 dereferenceable(20) %c) local_unnamed_addr #5 align 2 {
entry:
  %m_size.i = getelementptr inbounds i8, ptr %c, i64 4
  %0 = load i32, ptr %m_size.i, align 4
  %idx.ext.i = zext i32 %0 to i64
  %add.ptr.i.idx = shl nuw nsw i64 %idx.ext.i, 2
  %1 = getelementptr i8, ptr %c, i64 %add.ptr.i.idx
  %add.ptr.i.ptr = getelementptr i8, ptr %1, i64 20
  %cmp.not6 = icmp eq i32 %0, 0
  br i1 %cmp.not6, label %for.end, label %for.body.preheader

for.body.preheader:                               ; preds = %entry
  %m_lits.i.ptr = getelementptr inbounds i8, ptr %c, i64 20
  br label %for.body

for.body:                                         ; preds = %for.body.preheader, %for.body
  %__begin1.07 = phi ptr [ %incdec.ptr, %for.body ], [ %m_lits.i.ptr, %for.body.preheader ]
  %2 = load i32, ptr %__begin1.07, align 4
  %3 = load ptr, ptr %this, align 8
  %idxprom.i = zext i32 %2 to i64
  %m_num_redundant.i = getelementptr inbounds %"class.sat::clause_use_list", ptr %3, i64 %idxprom.i, i32 2
  %4 = load i32, ptr %m_num_redundant.i, align 4
  %dec.i = add i32 %4, -1
  store i32 %dec.i, ptr %m_num_redundant.i, align 4
  %incdec.ptr = getelementptr inbounds i8, ptr %__begin1.07, i64 4
  %cmp.not = icmp eq ptr %incdec.ptr, %add.ptr.i.ptr
  br i1 %cmp.not, label %for.end, label %for.body

for.end:                                          ; preds = %for.body, %entry
  ret void
}